; Function Attrs: mustprogress nofree norecurse nosync nounwind willreturn memory(read, inaccessiblemem: none) uwtable
define noundef zeroext i1 @_ZN3re28Compiler14ByteRangeEqualEii(ptr nocapture noundef nonnull readonly align 8 dereferenceable(212) %this, i32 noundef %id1, i32 noundef %id2) local_unnamed_addr #12 align 2 {
entry:
  %conv.i = sext i32 %id1 to i64
  %add.ptr.i.i.i.i.i.i.i = getelementptr inbounds i8, ptr %this, i64 128
  %0 = load ptr, ptr %add.ptr.i.i.i.i.i.i.i, align 8
  %arrayidx.i.i = getelementptr inbounds %"class.re2::Prog::Inst", ptr %0, i64 %conv.i
  %1 = getelementptr inbounds i8, ptr %arrayidx.i.i, i64 4
  %2 = load i8, ptr %1, align 4
  %conv.i6 = sext i32 %id2 to i64
  %arrayidx.i.i8 = getelementptr inbounds %"class.re2::Prog::Inst", ptr %0, i64 %conv.i6
  %3 = getelementptr inbounds i8, ptr %arrayidx.i.i8, i64 4
  %4 = load i8, ptr %3, align 4
  %cmp = icmp eq i8 %2, %4
  br i1 %cmp, label %land.lhs.true, label %land.end

land.lhs.true:                                    ; preds = %entry
  %hi_.i = getelementptr inbounds i8, ptr %arrayidx.i.i, i64 5
  %5 = load i8, ptr %hi_.i, align 1
  %hi_.i17 = getelementptr inbounds i8, ptr %arrayidx.i.i8, i64 5
  %6 = load i8, ptr %hi_.i17, align 1
  %cmp12 = icmp eq i8 %5, %6
  br i1 %cmp12, label %land.rhs, label %land.end

land.rhs:                                         ; preds = %land.lhs.true
  %hint_foldcase_.i = getelementptr inbounds i8, ptr %arrayidx.i.i, i64 6
  %7 = load i16, ptr %hint_foldcase_.i, align 2
  %hint_foldcase_.i25 = getelementptr inbounds i8, ptr %arrayidx.i.i8, i64 6
  %8 = load i16, ptr %hint_foldcase_.i25, align 2
  %9 = xor i16 %8, %7
  %10 = and i16 %9, 1
  %cmp19 = icmp eq i16 %10, 0
  br label %land.end

land.end:                                         ; preds = %land.rhs, %land.lhs.true, %entry
  %11 = phi i1 [ false, %land.lhs.true ], [ false, %entry ], [ %cmp19, %land.rhs ]
  ret i1 %11
}